(lp0
(i__main__
Drink
p1
(dp2
S'data'
p3
ccollections
OrderedDict
p4
((lp5
(lp6
S'points'
p7
aS'9.3'
p8
aa(lp9
S'brewery'
p10
aS'Sinebrychoff'
p11
aa(lp12
S'abv'
p13
aS'4.5'
p14
aa(lp15
S'name'
p16
aS'Koff III'
p17
aatp18
Rp19
sba.